; Function Attrs: mustprogress nounwind uwtable
define hidden void @_ZN12ObjectWaiter16wait_reenter_endEP13ObjectMonitor(ptr nocapture noundef nonnull readonly align 8 dereferenceable(49) %0, ptr nocapture noundef readnone %1) local_unnamed_addr #0 align 2 {
  %3 = getelementptr inbounds i8, ptr %0, i64 16
  %4 = load ptr, ptr %3, align 8
  %5 = getelementptr inbounds i8, ptr %0, i64 48
  %6 = load i8, ptr %5, align 8
  %7 = trunc i8 %6 to i1
  br i1 %7, label %8, label %_ZN36JavaThreadBlockedOnMonitorEnterState16wait_reenter_endEP10JavaThreadb.exit

8:                                                ; preds = %2
  %9 = getelementptr inbounds i8, ptr %4, i64 1552
  %10 = load ptr, ptr %9, align 8
  %11 = getelementptr inbounds i8, ptr %10, i64 8
  tail call void @_ZN12elapsedTimer4stopEv(ptr noundef nonnull align 8 dereferenceable(17) %11) #12
  %12 = getelementptr inbounds i8, ptr %10, i64 97
  %13 = load i8, ptr %12, align 1
  %14 = trunc i8 %13 to i1
  br i1 %14, label %15, label %_ZN36JavaThreadBlockedOnMonitorEnterState16wait_reenter_endEP10JavaThreadb.exit

15:                                               ; preds = %8
  store i64 0, ptr %11, align 8
  %16 = getelementptr inbounds i8, ptr %10, i64 40
  store i64 0, ptr %16, align 8
  %17 = getelementptr inbounds i8, ptr %10, i64 72
  store i64 0, ptr %17, align 8
  store i8 0, ptr %12, align 1
  br label %_ZN36JavaThreadBlockedOnMonitorEnterState16wait_reenter_endEP10JavaThreadb.exit

_ZN36JavaThreadBlockedOnMonitorEnterState16wait_reenter_endEP10JavaThreadb.exit: ; preds = %2, %8, %15
  %18 = tail call noundef ptr @_ZNK10JavaThread9threadObjEv(ptr noundef nonnull align 8 dereferenceable(1800) %4) #12
  tail call void @_ZN16java_lang_Thread17set_thread_statusEP7oopDesc16JavaThreadStatus(ptr noundef %18, i32 noundef 5) #12
  ret void
}